; Function Attrs: mustprogress nofree norecurse nounwind willreturn memory(readwrite, inaccessiblemem: none) uwtable
define internal void @_ZN7rocksdb12_GLOBAL__N_115HashSkipListRep8Iterator11SeekToFirstEv(ptr nocapture noundef nonnull align 8 dereferenceable(80) %this) unnamed_addr #13 align 2 {
entry:
  %list_ = getelementptr inbounds i8, ptr %this, i64 8
  %0 = load ptr, ptr %list_, align 8
  %cmp.not = icmp eq ptr %0, null
  br i1 %cmp.not, label %if.end, label %if.then

if.then:                                          ; preds = %entry
  %iter_ = getelementptr inbounds i8, ptr %this, i64 16
  %1 = load ptr, ptr %iter_, align 8
  %head_.i = getelementptr inbounds i8, ptr %1, i64 24
  %2 = load ptr, ptr %head_.i, align 8
  %next_.i.i = getelementptr inbounds i8, ptr %2, i64 8
  %3 = load atomic i64, ptr %next_.i.i acquire, align 8
  %atomic-temp.i.0.i.i.i = inttoptr i64 %3 to ptr
  %node_.i = getelementptr inbounds i8, ptr %this, i64 24
  store ptr %atomic-temp.i.0.i.i.i, ptr %node_.i, align 8
  br label %if.end

if.end:                                           ; preds = %if.then, %entry
  ret void
}